; Function Attrs: nounwind uwtable
define internal ptr @bytes_asstring(ptr readnone captures(none) %0, ptr noundef %1) #0 {
  %3 = alloca ptr, align 8
  %4 = alloca i64, align 8
  call void @llvm.lifetime.start.p0(i64 8, ptr nonnull %3) #4
  call void @llvm.lifetime.start.p0(i64 8, ptr nonnull %4) #4
  %5 = call i32 (ptr, ptr, ...) @PyArg_ParseTuple(ptr noundef %1, ptr noundef nonnull @.str.19, ptr noundef nonnull %3, ptr noundef nonnull %4) #4
  %.not = icmp eq i32 %5, 0
  br i1 %.not, label %17, label %6

6:                                                ; preds = %2
  %7 = load ptr, ptr %3, align 8, !tbaa !13
  %8 = icmp eq ptr %7, @_Py_NoneStruct
  br i1 %8, label %9, label %10

9:                                                ; preds = %6
  store ptr null, ptr %3, align 8, !tbaa !13
  br label %10

10:                                               ; preds = %9, %6
  %11 = phi ptr [ null, %9 ], [ %7, %6 ]
  %12 = call ptr @PyBytes_AsString(ptr noundef %11) #4
  %13 = icmp eq ptr %12, null
  br i1 %13, label %17, label %14

14:                                               ; preds = %10
  %15 = load i64, ptr %4, align 8, !tbaa !9
  %16 = call ptr @PyBytes_FromStringAndSize(ptr noundef nonnull %12, i64 noundef %15) #4
  br label %17

17:                                               ; preds = %10, %2, %14
  %.0 = phi ptr [ %16, %14 ], [ null, %2 ], [ null, %10 ]
  call void @llvm.lifetime.end.p0(i64 8, ptr nonnull %4) #4
  call void @llvm.lifetime.end.p0(i64 8, ptr nonnull %3) #4
  ret ptr %.0
}